; Function Attrs: mustprogress uwtable
define internal fastcc void @_ZL11warnNoSplitPK6AstVarPK7AstNodePKc(ptr noundef %0, ptr noundef %1, ptr noundef %2) unnamed_addr #3 personality ptr @__gxx_personality_v0 {
  %4 = alloca %"class.std::__cxx11::basic_string", align 8
  %5 = alloca %"class.std::__cxx11::basic_string", align 8
  %6 = tail call noundef nonnull align 8 dereferenceable(112) ptr @_ZN7V3Error11v3errorPrepB5cxx11E11V3ErrorCodeb(i8 89, i1 noundef zeroext true)
  %7 = tail call noundef nonnull align 8 dereferenceable(112) ptr @_ZN7V3Error10v3errorStrB5cxx11Ev()
  call void @llvm.lifetime.start.p0(i64 32, ptr nonnull %4)
  %8 = load ptr, ptr %0, align 8, !noalias !63
  %9 = getelementptr inbounds i8, ptr %8, i64 56
  %10 = load ptr, ptr %9, align 8, !noalias !63
  call void %10(ptr dead_on_unwind nonnull writable sret(%"class.std::__cxx11::basic_string") align 8 %4, ptr noundef nonnull align 8 dereferenceable(152) %0), !noalias !63
  invoke void @_ZN7AstNode11prettyNameQERKNSt7__cxx1112basic_stringIcSt11char_traitsIcESaIcEEE(ptr dead_on_unwind nonnull writable sret(%"class.std::__cxx11::basic_string") align 8 %5, ptr noundef nonnull align 8 dereferenceable(32) %4)
          to label %_ZNK7AstNode11prettyNameQB5cxx11Ev.exit unwind label %11

common.resume:                                    ; preds = %22, %11
  %.sink = phi ptr [ %5, %22 ], [ %4, %11 ]
  %common.resume.op = phi { ptr, i32 } [ %23, %22 ], [ %12, %11 ]
  call void @_ZNSt7__cxx1112basic_stringIcSt11char_traitsIcESaIcEED1Ev(ptr noundef nonnull align 8 dereferenceable(32) %.sink) #20
  resume { ptr, i32 } %common.resume.op

11:                                               ; preds = %3
  %12 = landingpad { ptr, i32 }
          cleanup
  br label %common.resume

_ZNK7AstNode11prettyNameQB5cxx11Ev.exit:          ; preds = %3
  call void @_ZNSt7__cxx1112basic_stringIcSt11char_traitsIcESaIcEED1Ev(ptr noundef nonnull align 8 dereferenceable(32) %4) #20
  call void @llvm.lifetime.end.p0(i64 32, ptr nonnull %4)
  %13 = invoke noundef nonnull align 8 dereferenceable(8) ptr @_ZStlsIcSt11char_traitsIcESaIcEERSt13basic_ostreamIT_T0_ES7_RKNSt7__cxx1112basic_stringIS4_S5_T1_EE(ptr noundef nonnull align 8 dereferenceable(8) %7, ptr noundef nonnull align 8 dereferenceable(32) %5)
          to label %14 unwind label %22

14:                                               ; preds = %_ZNK7AstNode11prettyNameQB5cxx11Ev.exit
  %15 = invoke noundef nonnull align 8 dereferenceable(8) ptr @_ZStlsISt11char_traitsIcEERSt13basic_ostreamIcT_ES5_PKc(ptr noundef nonnull align 8 dereferenceable(8) %13, ptr noundef nonnull @.str.470)
          to label %16 unwind label %22

16:                                               ; preds = %14
  %17 = invoke noundef nonnull align 8 dereferenceable(8) ptr @_ZStlsISt11char_traitsIcEERSt13basic_ostreamIcT_ES5_PKc(ptr noundef nonnull align 8 dereferenceable(8) %15, ptr noundef %2)
          to label %18 unwind label %22

18:                                               ; preds = %16
  %19 = invoke noundef nonnull align 8 dereferenceable(8) ptr @_ZStlsISt11char_traitsIcEERSt13basic_ostreamIcT_ES5_PKc(ptr noundef nonnull align 8 dereferenceable(8) %17, ptr noundef nonnull @.str.471)
          to label %20 unwind label %22

20:                                               ; preds = %18
  invoke void @_ZNK7AstNode10v3errorEndERNSt7__cxx1119basic_ostringstreamIcSt11char_traitsIcESaIcEEE(ptr noundef nonnull align 8 dereferenceable(152) %1, ptr noundef nonnull align 8 dereferenceable(112) %19)
          to label %21 unwind label %22

21:                                               ; preds = %20
  call void @_ZNSt7__cxx1112basic_stringIcSt11char_traitsIcESaIcEED1Ev(ptr noundef nonnull align 8 dereferenceable(32) %5) #20
  ret void

22:                                               ; preds = %20, %18, %16, %14, %_ZNK7AstNode11prettyNameQB5cxx11Ev.exit
  %23 = landingpad { ptr, i32 }
          cleanup
  br label %common.resume
}